; Function Attrs: nounwind uwtable
define noalias noundef ptr @Saig_ManBmcTerSimPo(ptr noundef readonly captures(none) %0) local_unnamed_addr #0 {
  %2 = tail call noalias dereferenceable_or_null(16) ptr @malloc(i64 noundef 16) #27
  %3 = getelementptr inbounds nuw i8, ptr %2, i64 4
  store i32 0, ptr %3, align 4, !tbaa !32
  store i32 100, ptr %2, align 8, !tbaa !42
  %4 = tail call noalias dereferenceable_or_null(800) ptr @malloc(i64 noundef 800) #27
  %5 = getelementptr inbounds nuw i8, ptr %2, i64 8
  store ptr %4, ptr %5, align 8, !tbaa !23
  %6 = getelementptr i8, ptr %0, i64 112
  %7 = getelementptr inbounds nuw i8, ptr %0, i64 24
  br label %8

8:                                                ; preds = %Saig_ManBmcTerSimCount01Po.exit, %1
  %9 = phi i32 [ 100, %1 ], [ %37, %Saig_ManBmcTerSimCount01Po.exit ]
  %10 = phi i32 [ 0, %1 ], [ %39, %Saig_ManBmcTerSimCount01Po.exit ]
  %.015 = phi i32 [ 0, %1 ], [ %61, %Saig_ManBmcTerSimCount01Po.exit ]
  %.0 = phi ptr [ null, %1 ], [ %15, %Saig_ManBmcTerSimCount01Po.exit ]
  %11 = urem i32 %.015, 100
  %12 = icmp eq i32 %11, 0
  br i1 %12, label %13, label %14

13:                                               ; preds = %8
  tail call void (i32, ptr, ...) @Abc_Print(i32 poison, ptr noundef nonnull @.str.3, i32 noundef %.015)
  br label %14

14:                                               ; preds = %13, %8
  %15 = tail call ptr @Saig_ManBmcTerSimOne(ptr noundef %0, ptr noundef %.0)
  %16 = icmp eq i32 %10, %9
  br i1 %16, label %17, label %.Vec_PtrGrow.exit11_crit_edge.i

.Vec_PtrGrow.exit11_crit_edge.i:                  ; preds = %14
  %.pre.i = load ptr, ptr %5, align 8, !tbaa !23
  br label %Vec_PtrPush.exit

17:                                               ; preds = %14
  %18 = icmp slt i32 %9, 16
  br i1 %18, label %19, label %26

19:                                               ; preds = %17
  %20 = load ptr, ptr %5, align 8, !tbaa !23
  %.not9.i.i = icmp eq ptr %20, null
  br i1 %.not9.i.i, label %23, label %21

21:                                               ; preds = %19
  %22 = tail call dereferenceable_or_null(128) ptr @realloc(ptr noundef nonnull %20, i64 noundef 128) #28
  br label %Vec_PtrGrow.exit.i

23:                                               ; preds = %19
  %24 = tail call noalias dereferenceable_or_null(128) ptr @malloc(i64 noundef 128) #27
  br label %Vec_PtrGrow.exit.i

Vec_PtrGrow.exit.i:                               ; preds = %23, %21
  %25 = phi ptr [ %22, %21 ], [ %24, %23 ]
  store ptr %25, ptr %5, align 8, !tbaa !23
  store i32 16, ptr %2, align 8, !tbaa !42
  br label %Vec_PtrPush.exit

26:                                               ; preds = %17
  %27 = shl nuw nsw i32 %9, 1
  %28 = load ptr, ptr %5, align 8, !tbaa !23
  %.not9.i10.i = icmp eq ptr %28, null
  %29 = zext nneg i32 %27 to i64
  %30 = shl nuw nsw i64 %29, 3
  br i1 %.not9.i10.i, label %33, label %31

31:                                               ; preds = %26
  %32 = tail call ptr @realloc(ptr noundef nonnull %28, i64 noundef %30) #28
  br label %35

33:                                               ; preds = %26
  %34 = tail call noalias ptr @malloc(i64 noundef %30) #27
  br label %35

35:                                               ; preds = %33, %31
  %36 = phi ptr [ %32, %31 ], [ %34, %33 ]
  store ptr %36, ptr %5, align 8, !tbaa !23
  store i32 %27, ptr %2, align 8, !tbaa !42
  br label %Vec_PtrPush.exit

Vec_PtrPush.exit:                                 ; preds = %.Vec_PtrGrow.exit11_crit_edge.i, %Vec_PtrGrow.exit.i, %35
  %37 = phi i32 [ %9, %.Vec_PtrGrow.exit11_crit_edge.i ], [ %27, %35 ], [ 16, %Vec_PtrGrow.exit.i ]
  %38 = phi ptr [ %.pre.i, %.Vec_PtrGrow.exit11_crit_edge.i ], [ %36, %35 ], [ %25, %Vec_PtrGrow.exit.i ]
  %39 = add nuw nsw i32 %10, 1
  store i32 %39, ptr %3, align 4, !tbaa !32
  %40 = zext nneg i32 %10 to i64
  %41 = getelementptr inbounds nuw ptr, ptr %38, i64 %40
  store ptr %15, ptr %41, align 8, !tbaa !25
  %.val.i = load i32, ptr %6, align 8, !tbaa !22
  %42 = icmp sgt i32 %.val.i, 0
  br i1 %42, label %.lr.ph.i, label %Saig_ManBmcTerSimCount01Po.exit

.lr.ph.i:                                         ; preds = %Vec_PtrPush.exit
  %43 = load ptr, ptr %7, align 8, !tbaa !21
  %44 = getelementptr i8, ptr %43, i64 8
  %.val9.i = load ptr, ptr %44, align 8, !tbaa !23
  %wide.trip.count.i = zext nneg i32 %.val.i to i64
  br label %45

45:                                               ; preds = %45, %.lr.ph.i
  %indvars.iv.i = phi i64 [ 0, %.lr.ph.i ], [ %indvars.iv.next.i, %45 ]
  %.012.i = phi i32 [ 0, %.lr.ph.i ], [ %59, %45 ]
  %46 = getelementptr inbounds nuw ptr, ptr %.val9.i, i64 %indvars.iv.i
  %47 = load ptr, ptr %46, align 8, !tbaa !25
  %48 = getelementptr i8, ptr %47, i64 36
  %.val10.i = load i32, ptr %48, align 4, !tbaa !27
  %49 = ashr i32 %.val10.i, 4
  %50 = sext i32 %49 to i64
  %51 = getelementptr inbounds i32, ptr %15, i64 %50
  %52 = load i32, ptr %51, align 4, !tbaa !28
  %53 = shl i32 %.val10.i, 1
  %54 = and i32 %53, 30
  %55 = lshr i32 %52, %54
  %56 = and i32 %55, 3
  %57 = icmp ne i32 %56, 3
  %58 = zext i1 %57 to i32
  %59 = add nuw nsw i32 %.012.i, %58
  %indvars.iv.next.i = add nuw nsw i64 %indvars.iv.i, 1
  %exitcond.not.i = icmp eq i64 %indvars.iv.next.i, %wide.trip.count.i
  br i1 %exitcond.not.i, label %Saig_ManBmcTerSimCount01Po.exit, label %45, !llvm.loop !54

Saig_ManBmcTerSimCount01Po.exit:                  ; preds = %45, %Vec_PtrPush.exit
  %.0.lcssa.i = phi i32 [ 0, %Vec_PtrPush.exit ], [ %59, %45 ]
  %60 = icmp slt i32 %.0.lcssa.i, %.val.i
  %61 = add nuw nsw i32 %.015, 1
  br i1 %60, label %62, label %8

62:                                               ; preds = %Saig_ManBmcTerSimCount01Po.exit
  tail call void (i32, ptr, ...) @Abc_Print(i32 poison, ptr noundef nonnull @.str.4, i32 noundef %.015)
  tail call void @Saig_ManBmcCountNonternary(ptr noundef %0, ptr noundef nonnull %2, i32 noundef %.015)
  ret ptr %2
}